(dp0
S'person'
p1
(lp2
(dp3
S'Abstract'
p4
I00
sa(dp5
S'Pincode'
p6
c__builtin__
long
p7
sS'Age'
p8
g7
sS'Address'
p9
c__builtin__
str
p10
sS'ID'
p11
g10
sS'Name'
p12
g10
sa(dp13
S'Department'
p14
g10
sS'Hall'
p15
g10
sS'Email'
p16
g10
sasS'InstitutionalBody'
p17
(lp18
(dp19
g4
I01
sa(dp20
S'City'
p21
g10
sg9
g10
sg6
g7
sg12
g10
sa(dp22
S'Phone'
p23
g7
sasS'campus'
p24
(lp25
(dp26
g4
I01
sa(dp27
g21
g10
sg6
g7
sa(dp28
g23
g7
sas.